target datalayout = "e-m:e-p270:32:32-p271:32:32-p272:64:64-i64:64-i128:128-f80:128-n8:16:32:64-S128"
target triple = "x86_64-unknown-linux-gnu"

%"class.smt::theory_recfun" = type <{ %"class.smt::theory.base", [3 x i8], ptr, ptr, %"struct.smt::theory_recfun::stats", [4 x i8], %class.ref_vector, %class.ref_vector, %class.obj_map, %class.obj_map.3, %class.ref_vector, %class.svector, i32, [4 x i8], %class.scoped_ptr_vector, i32, [4 x i8] }>
%"class.smt::theory.base" = type <{ ptr, i32, [4 x i8], ptr, ptr, %class.ptr_vector, %class.svector, i32, i8 }>
%class.ptr_vector = type { %class.vector }
%class.vector = type { ptr }
%"struct.smt::theory_recfun::stats" = type { i32, i32, i32 }
%class.obj_map = type { %class.core_hashtable }
%class.core_hashtable = type <{ ptr, i32, i32, i32, [4 x i8] }>
%class.obj_map.3 = type { %class.core_hashtable.4 }
%class.core_hashtable.4 = type <{ ptr, i32, i32, i32, [4 x i8] }>
%class.ref_vector = type { %class.ref_vector_core }
%class.ref_vector_core = type { %class.ref_manager_wrapper, %class.ptr_vector.1 }
%class.ref_manager_wrapper = type { ptr }
%class.ptr_vector.1 = type { %class.vector.2 }
%class.vector.2 = type { ptr }
%class.svector = type { %class.vector.0 }
%class.vector.0 = type { ptr }
%class.scoped_ptr_vector = type { %class.ptr_vector.8 }
%class.ptr_vector.8 = type { %class.vector.9 }
%class.vector.9 = type { ptr }

@.str.11 = private unnamed_addr constant [8 x i8] c"recfun\0A\00", align 1
@.str.12 = private unnamed_addr constant [18 x i8] c"disabled guards:\0A\00", align 1
@.str.13 = private unnamed_addr constant [2 x i8] c"\0A\00", align 1
@.str.14 = private unnamed_addr constant [17 x i8] c"enabled guards:\0A\00", align 1

; Function Attrs: mustprogress uwtable
define hidden void @_ZNK3smt13theory_recfun7displayERSo(ptr noundef nonnull align 8 dereferenceable(212) %this, ptr noundef nonnull align 8 dereferenceable(8) %out) unnamed_addr #5 align 2 {
entry:
  %this.addr = alloca ptr, align 8
  %out.addr = alloca ptr, align 8
  store ptr %this, ptr %this.addr, align 8
  store ptr %out, ptr %out.addr, align 8
  %this1 = load ptr, ptr %this.addr, align 8
  %0 = load ptr, ptr %out.addr, align 8
  %call = call noundef nonnull align 8 dereferenceable(8) ptr @_ZStlsISt11char_traitsIcEERSt13basic_ostreamIcT_ES5_PKc(ptr noundef nonnull align 8 dereferenceable(8) %0, ptr noundef @.str.11)
  %1 = load ptr, ptr %out.addr, align 8
  %call2 = call noundef nonnull align 8 dereferenceable(8) ptr @_ZStlsISt11char_traitsIcEERSt13basic_ostreamIcT_ES5_PKc(ptr noundef nonnull align 8 dereferenceable(8) %1, ptr noundef @.str.12)
  %m_disabled_guards = getelementptr inbounds %"class.smt::theory_recfun", ptr %this1, i32 0, i32 6
  %call3 = call noundef nonnull align 8 dereferenceable(8) ptr @_ZlsRSoRK10ref_vectorI4expr11ast_managerE(ptr noundef nonnull align 8 dereferenceable(8) %call2, ptr noundef nonnull align 8 dereferenceable(16) %m_disabled_guards)
  %call4 = call noundef nonnull align 8 dereferenceable(8) ptr @_ZStlsISt11char_traitsIcEERSt13basic_ostreamIcT_ES5_PKc(ptr noundef nonnull align 8 dereferenceable(8) %call3, ptr noundef @.str.13)
  %2 = load ptr, ptr %out.addr, align 8
  %call5 = call noundef nonnull align 8 dereferenceable(8) ptr @_ZStlsISt11char_traitsIcEERSt13basic_ostreamIcT_ES5_PKc(ptr noundef nonnull align 8 dereferenceable(8) %2, ptr noundef @.str.14)
  %m_enabled_guards = getelementptr inbounds %"class.smt::theory_recfun", ptr %this1, i32 0, i32 7
  %call6 = call noundef nonnull align 8 dereferenceable(8) ptr @_ZlsRSoRK10ref_vectorI4expr11ast_managerE(ptr noundef nonnull align 8 dereferenceable(8) %call5, ptr noundef nonnull align 8 dereferenceable(16) %m_enabled_guards)
  %call7 = call noundef nonnull align 8 dereferenceable(8) ptr @_ZStlsISt11char_traitsIcEERSt13basic_ostreamIcT_ES5_PKc(ptr noundef nonnull align 8 dereferenceable(8) %call6, ptr noundef @.str.13)
  ret void
}